; Function Attrs: mustprogress nounwind uwtable
define hidden void @_ZN3sls6solverD2Ev(ptr noundef nonnull align 8 dereferenceable(160) initializes((0, 8), (32, 56), (112, 120)) %0) unnamed_addr #5 align 2 personality ptr @__gxx_personality_v0 {
  store ptr getelementptr inbounds nuw inrange(-16, 648) (i8, ptr @_ZTVN3sls6solverE, i64 16), ptr %0, align 8, !tbaa !384
  %2 = getelementptr inbounds nuw i8, ptr %0, i64 32
  store ptr getelementptr inbounds nuw inrange(-16, 64) (i8, ptr @_ZTVN3sls6solverE, i64 680), ptr %2, align 8, !tbaa !384
  %3 = getelementptr inbounds nuw i8, ptr %0, i64 40
  store ptr getelementptr inbounds nuw inrange(-16, 24) (i8, ptr @_ZTVN3sls6solverE, i64 760), ptr %3, align 8, !tbaa !384
  %4 = getelementptr inbounds nuw i8, ptr %0, i64 48
  store ptr getelementptr inbounds nuw inrange(-16, 72) (i8, ptr @_ZTVN3sls6solverE, i64 800), ptr %4, align 8, !tbaa !384
  %5 = getelementptr inbounds nuw i8, ptr %0, i64 112
  store ptr getelementptr inbounds nuw inrange(-16, 112) (i8, ptr @_ZTVN3sls6solverE, i64 888), ptr %5, align 8, !tbaa !384
  %6 = getelementptr inbounds nuw i8, ptr %0, i64 128
  %7 = load ptr, ptr %6, align 8, !tbaa !386
  %.not.i = icmp eq ptr %7, null
  br i1 %.not.i, label %_ZN3sls6solver8finalizeEv.exit, label %8

8:                                                ; preds = %1
  %9 = getelementptr inbounds nuw i8, ptr %0, i64 120
  %10 = getelementptr inbounds nuw i8, ptr %0, i64 144
  invoke void @_ZN3sls10smt_plugin8finalizeER3refI5modelER10statistics(ptr noundef nonnull align 8 dereferenceable(3024) %7, ptr noundef nonnull align 8 dereferenceable(8) %9, ptr noundef nonnull align 8 dereferenceable(16) %10)
          to label %.noexc unwind label %47

.noexc:                                           ; preds = %8
  %11 = load ptr, ptr %9, align 8, !tbaa !393
  %.not.i.i.i1 = icmp eq ptr %11, null
  br i1 %.not.i.i.i1, label %_ZN3refI5modelEaSEPS0_.exit.i, label %12

12:                                               ; preds = %.noexc
  %13 = getelementptr inbounds nuw i8, ptr %11, i64 16
  %14 = load i32, ptr %13, align 8, !tbaa !394
  %15 = add i32 %14, -1
  store i32 %15, ptr %13, align 8, !tbaa !394
  %16 = icmp eq i32 %15, 0
  br i1 %16, label %17, label %_ZN3refI5modelEaSEPS0_.exit.i

17:                                               ; preds = %12
  %18 = load ptr, ptr %11, align 8, !tbaa !384
  %19 = load ptr, ptr %18, align 8
  tail call void %19(ptr noundef nonnull align 8 dereferenceable(96) %11) #23
  invoke void @_ZN6memory10deallocateEPv(ptr noundef nonnull align 8 dereferenceable(96) %11)
          to label %_ZN3refI5modelEaSEPS0_.exit.i unwind label %47

_ZN3refI5modelEaSEPS0_.exit.i:                    ; preds = %17, %12, %.noexc
  tail call void @llvm.memset.p0.i64(ptr noundef nonnull align 8 dereferenceable(16) %9, i8 0, i64 16, i1 false)
  br label %_ZN3sls6solver8finalizeEv.exit

_ZN3sls6solver8finalizeEv.exit:                   ; preds = %_ZN3refI5modelEaSEPS0_.exit.i, %1
  %20 = getelementptr inbounds nuw i8, ptr %0, i64 144
  %21 = getelementptr inbounds nuw i8, ptr %0, i64 152
  %22 = load ptr, ptr %21, align 8, !tbaa !402
  %.not.i.i.i = icmp eq ptr %22, null
  br i1 %.not.i.i.i, label %_ZN6vectorISt4pairIPKcdELb0EjED2Ev.exit.i, label %23

23:                                               ; preds = %_ZN3sls6solver8finalizeEv.exit
  %24 = getelementptr inbounds i8, ptr %22, i64 -8
  invoke void @_ZN6memory10deallocateEPv(ptr noundef nonnull %24)
          to label %_ZN6vectorISt4pairIPKcdELb0EjED2Ev.exit.i unwind label %25

25:                                               ; preds = %23
  %26 = landingpad { ptr, i32 }
          catch ptr null
  %27 = extractvalue { ptr, i32 } %26, 0
  tail call void @__clang_call_terminate(ptr %27) #24
  unreachable

_ZN6vectorISt4pairIPKcdELb0EjED2Ev.exit.i:        ; preds = %23, %_ZN3sls6solver8finalizeEv.exit
  %28 = load ptr, ptr %20, align 8, !tbaa !403
  %.not.i.i1.i = icmp eq ptr %28, null
  br i1 %.not.i.i1.i, label %_ZN10statisticsD2Ev.exit, label %29

29:                                               ; preds = %_ZN6vectorISt4pairIPKcdELb0EjED2Ev.exit.i
  %30 = getelementptr inbounds i8, ptr %28, i64 -8
  invoke void @_ZN6memory10deallocateEPv(ptr noundef nonnull %30)
          to label %_ZN10statisticsD2Ev.exit unwind label %31

31:                                               ; preds = %29
  %32 = landingpad { ptr, i32 }
          catch ptr null
  %33 = extractvalue { ptr, i32 } %32, 0
  tail call void @__clang_call_terminate(ptr %33) #24
  unreachable

_ZN10statisticsD2Ev.exit:                         ; preds = %_ZN6vectorISt4pairIPKcdELb0EjED2Ev.exit.i, %29
  %34 = getelementptr inbounds nuw i8, ptr %0, i64 120
  %35 = load ptr, ptr %34, align 8, !tbaa !393
  %.not.i.i = icmp eq ptr %35, null
  br i1 %.not.i.i, label %_ZN3refI5modelED2Ev.exit, label %36

36:                                               ; preds = %_ZN10statisticsD2Ev.exit
  %37 = getelementptr inbounds nuw i8, ptr %35, i64 16
  %38 = load i32, ptr %37, align 8, !tbaa !394
  %39 = add i32 %38, -1
  store i32 %39, ptr %37, align 8, !tbaa !394
  %40 = icmp eq i32 %39, 0
  br i1 %40, label %41, label %_ZN3refI5modelED2Ev.exit

41:                                               ; preds = %36
  %42 = load ptr, ptr %35, align 8, !tbaa !384
  %43 = load ptr, ptr %42, align 8
  tail call void %43(ptr noundef nonnull align 8 dereferenceable(96) %35) #23
  invoke void @_ZN6memory10deallocateEPv(ptr noundef nonnull align 8 dereferenceable(96) %35)
          to label %_ZN3refI5modelED2Ev.exit unwind label %44

44:                                               ; preds = %41
  %45 = landingpad { ptr, i32 }
          catch ptr null
  %46 = extractvalue { ptr, i32 } %45, 0
  tail call void @__clang_call_terminate(ptr %46) #24
  unreachable

_ZN3refI5modelED2Ev.exit:                         ; preds = %_ZN10statisticsD2Ev.exit, %36, %41
  tail call void @_ZN3euf13th_euf_solverD2Ev(ptr noundef nonnull align 8 dereferenceable(108) %0) #23
  ret void

47:                                               ; preds = %17, %8
  %48 = landingpad { ptr, i32 }
          catch ptr null
  %49 = extractvalue { ptr, i32 } %48, 0
  tail call void @__clang_call_terminate(ptr %49) #24
  unreachable
}